target datalayout = "e-m:e-p270:32:32-p271:32:32-p272:64:64-i64:64-i128:128-f80:128-n8:16:32:64-S128"
target triple = "x86_64-pc-linux-gnu"

%struct.AVChannelLayout = type { i32, i32, %union.anon.0, ptr }
%union.anon.0 = type { i64 }
%struct.AVCodecContext = type { ptr, i32, i32, ptr, i32, i32, ptr, ptr, ptr, i64, i32, i32, ptr, i32, %struct.AVRational, %struct.AVRational, %struct.AVRational, i32, i32, i32, i32, i32, %struct.AVRational, i32, i32, i32, i32, i32, i32, i32, i32, i32, i32, i32, ptr, ptr, i32, float, float, float, float, float, float, float, float, float, i32, i32, i32, i32, i32, i32, i32, i32, i32, i32, i32, i32, ptr, ptr, ptr, i32, i32, i32, i32, i32, i32, i32, i32, i32, i32, %struct.AVChannelLayout, i32, i32, i32, i32, i32, i32, i32, i32, ptr, i32, i32, i32, float, float, i32, i32, i32, i32, i32, ptr, i64, i64, float, float, i32, i32, ptr, ptr, i32, i32, i32, i32, i32, ptr, ptr, ptr, ptr, i32, i32, [8 x i64], i32, i32, i32, i32, i32, i32, i32, ptr, ptr, i32, i32, i32, i32, i32, i32, i32, i32, i32, i32, ptr, ptr, i32, i32, ptr, ptr, ptr, ptr, i32, i32, i64, i32, i32, i64, ptr, i64, ptr, i32, ptr, i32 }
%struct.AVRational = type { i32, i32 }
%struct.AMRWBChannelsContext = type { [2 x %struct.AMRWBContext] }
%struct.AMRWBContext = type { %struct.AMRWBFrame, i32, i8, [16 x float], [16 x float], [16 x float], [4 x [16 x double]], [16 x double], [4 x [16 x float]], i8, i8, [313 x float], ptr, [64 x float], [64 x float], [4 x float], [6 x float], [2 x float], float, float, i8, float, [80 x float], [88 x float], [100 x float], [2 x float], [2 x float], [1 x float], [30 x float], [30 x float], %struct.AVLFG, i8, %struct.ACELPFContext, %struct.ACELPVContext, %struct.CELPFContext, %struct.CELPMContext }
%struct.AMRWBFrame = type { i16, [7 x i16], [4 x %struct.AMRWBSubFrame] }
%struct.AMRWBSubFrame = type { i16, i16, i16, i16, [4 x i16], [4 x i16] }
%struct.AVLFG = type { [64 x i32], i32 }
%struct.ACELPFContext = type { ptr, ptr }
%struct.ACELPVContext = type { ptr }
%struct.CELPFContext = type { ptr, ptr }
%struct.CELPMContext = type { ptr }

@.str.2 = private unnamed_addr constant [15 x i8] c">2 channel AMR\00", align 1
@isf_init = internal constant [16 x i16] [i16 1024, i16 2048, i16 3072, i16 4096, i16 5120, i16 6144, i16 7168, i16 8192, i16 9216, i16 10240, i16 11264, i16 12288, i16 13312, i16 14336, i16 15360, i16 3840], align 16

; Function Attrs: cold nounwind optsize uwtable
define internal i32 @amrwb_decode_init(ptr noundef %0) #0 {
  %2 = alloca i32, align 4
  %3 = alloca ptr, align 8
  %4 = alloca ptr, align 8
  %5 = alloca i32, align 4
  %6 = alloca i32, align 4
  %7 = alloca %struct.AVChannelLayout, align 8
  %8 = alloca i32, align 4
  %9 = alloca ptr, align 8
  store ptr %0, ptr %3, align 8, !tbaa !4
  call void @llvm.lifetime.start.p0(i64 8, ptr %4) #9
  %10 = load ptr, ptr %3, align 8, !tbaa !4
  %11 = getelementptr inbounds nuw %struct.AVCodecContext, ptr %10, i32 0, i32 6
  %12 = load ptr, ptr %11, align 8, !tbaa !9
  store ptr %12, ptr %4, align 8, !tbaa !29
  call void @llvm.lifetime.start.p0(i64 4, ptr %5) #9
  %13 = load ptr, ptr %3, align 8, !tbaa !4
  %14 = getelementptr inbounds nuw %struct.AVCodecContext, ptr %13, i32 0, i32 71
  %15 = getelementptr inbounds nuw %struct.AVChannelLayout, ptr %14, i32 0, i32 1
  %16 = load i32, ptr %15, align 4, !tbaa !31
  %17 = icmp sgt i32 %16, 2
  br i1 %17, label %18, label %20

18:                                               ; preds = %1
  %19 = load ptr, ptr %3, align 8, !tbaa !4
  call void (ptr, ptr, ...) @avpriv_report_missing_feature(ptr noundef %19, ptr noundef @.str.2)
  store i32 -1163346256, ptr %2, align 4
  store i32 1, ptr %6, align 4
  br label %114

20:                                               ; preds = %1
  %21 = load ptr, ptr %3, align 8, !tbaa !4
  %22 = getelementptr inbounds nuw %struct.AVCodecContext, ptr %21, i32 0, i32 71
  %23 = getelementptr inbounds nuw %struct.AVChannelLayout, ptr %22, i32 0, i32 1
  %24 = load i32, ptr %23, align 4, !tbaa !31
  %25 = icmp ne i32 %24, 0
  br i1 %25, label %35, label %26

26:                                               ; preds = %20
  %27 = load ptr, ptr %3, align 8, !tbaa !4
  %28 = getelementptr inbounds nuw %struct.AVCodecContext, ptr %27, i32 0, i32 71
  call void @av_channel_layout_uninit(ptr noundef %28)
  %29 = load ptr, ptr %3, align 8, !tbaa !4
  %30 = getelementptr inbounds nuw %struct.AVCodecContext, ptr %29, i32 0, i32 71
  %31 = getelementptr inbounds nuw %struct.AVChannelLayout, ptr %7, i32 0, i32 0
  store i32 1, ptr %31, align 8, !tbaa !32
  %32 = getelementptr inbounds nuw %struct.AVChannelLayout, ptr %7, i32 0, i32 1
  store i32 1, ptr %32, align 4, !tbaa !33
  %33 = getelementptr inbounds nuw %struct.AVChannelLayout, ptr %7, i32 0, i32 2
  store i64 4, ptr %33, align 8, !tbaa !34
  %34 = getelementptr inbounds nuw %struct.AVChannelLayout, ptr %7, i32 0, i32 3
  store ptr null, ptr %34, align 8, !tbaa !35
  call void @llvm.memcpy.p0.p0.i64(ptr align 8 %30, ptr align 8 %7, i64 24, i1 false), !tbaa.struct !36
  br label %35

35:                                               ; preds = %26, %20
  %36 = load ptr, ptr %3, align 8, !tbaa !4
  %37 = getelementptr inbounds nuw %struct.AVCodecContext, ptr %36, i32 0, i32 69
  %38 = load i32, ptr %37, align 8, !tbaa !39
  %39 = icmp ne i32 %38, 0
  br i1 %39, label %43, label %40

40:                                               ; preds = %35
  %41 = load ptr, ptr %3, align 8, !tbaa !4
  %42 = getelementptr inbounds nuw %struct.AVCodecContext, ptr %41, i32 0, i32 69
  store i32 16000, ptr %42, align 8, !tbaa !39
  br label %43

43:                                               ; preds = %40, %35
  %44 = load ptr, ptr %3, align 8, !tbaa !4
  %45 = getelementptr inbounds nuw %struct.AVCodecContext, ptr %44, i32 0, i32 70
  store i32 8, ptr %45, align 4, !tbaa !40
  call void @llvm.lifetime.start.p0(i64 4, ptr %8) #9
  store i32 0, ptr %8, align 4, !tbaa !37
  br label %46

46:                                               ; preds = %110, %43
  %47 = load i32, ptr %8, align 4, !tbaa !37
  %48 = load ptr, ptr %3, align 8, !tbaa !4
  %49 = getelementptr inbounds nuw %struct.AVCodecContext, ptr %48, i32 0, i32 71
  %50 = getelementptr inbounds nuw %struct.AVChannelLayout, ptr %49, i32 0, i32 1
  %51 = load i32, ptr %50, align 4, !tbaa !31
  %52 = icmp slt i32 %47, %51
  br i1 %52, label %54, label %53

53:                                               ; preds = %46
  store i32 2, ptr %6, align 4
  call void @llvm.lifetime.end.p0(i64 4, ptr %8) #9
  br label %113

54:                                               ; preds = %46
  call void @llvm.lifetime.start.p0(i64 8, ptr %9) #9
  %55 = load ptr, ptr %4, align 8, !tbaa !29
  %56 = getelementptr inbounds nuw %struct.AMRWBChannelsContext, ptr %55, i32 0, i32 0
  %57 = load i32, ptr %8, align 4, !tbaa !37
  %58 = sext i32 %57 to i64
  %59 = getelementptr inbounds [2 x %struct.AMRWBContext], ptr %56, i64 0, i64 %58
  store ptr %59, ptr %9, align 8, !tbaa !41
  %60 = load ptr, ptr %9, align 8, !tbaa !41
  %61 = getelementptr inbounds nuw %struct.AMRWBContext, ptr %60, i32 0, i32 30
  call void @av_lfg_init(ptr noundef %61, i32 noundef 1)
  %62 = load ptr, ptr %9, align 8, !tbaa !41
  %63 = getelementptr inbounds nuw %struct.AMRWBContext, ptr %62, i32 0, i32 11
  %64 = getelementptr inbounds [313 x float], ptr %63, i64 0, i64 248
  %65 = load ptr, ptr %9, align 8, !tbaa !41
  %66 = getelementptr inbounds nuw %struct.AMRWBContext, ptr %65, i32 0, i32 12
  store ptr %64, ptr %66, align 8, !tbaa !43
  %67 = load ptr, ptr %9, align 8, !tbaa !41
  %68 = getelementptr inbounds nuw %struct.AMRWBContext, ptr %67, i32 0, i32 31
  store i8 1, ptr %68, align 8, !tbaa !53
  store i32 0, ptr %5, align 4, !tbaa !37
  br label %69

69:                                               ; preds = %85, %54
  %70 = load i32, ptr %5, align 4, !tbaa !37
  %71 = icmp slt i32 %70, 16
  br i1 %71, label %72, label %88

72:                                               ; preds = %69
  %73 = load i32, ptr %5, align 4, !tbaa !37
  %74 = sext i32 %73 to i64
  %75 = getelementptr inbounds [16 x i16], ptr @isf_init, i64 0, i64 %74
  %76 = load i16, ptr %75, align 2, !tbaa !54
  %77 = sext i16 %76 to i32
  %78 = sitofp i32 %77 to float
  %79 = fmul nsz float %78, 0x3F00000000000000
  %80 = load ptr, ptr %9, align 8, !tbaa !41
  %81 = getelementptr inbounds nuw %struct.AMRWBContext, ptr %80, i32 0, i32 5
  %82 = load i32, ptr %5, align 4, !tbaa !37
  %83 = sext i32 %82 to i64
  %84 = getelementptr inbounds [16 x float], ptr %81, i64 0, i64 %83
  store float %79, ptr %84, align 4, !tbaa !55
  br label %85

85:                                               ; preds = %72
  %86 = load i32, ptr %5, align 4, !tbaa !37
  %87 = add nsw i32 %86, 1
  store i32 %87, ptr %5, align 4, !tbaa !37
  br label %69, !llvm.loop !56

88:                                               ; preds = %69
  store i32 0, ptr %5, align 4, !tbaa !37
  br label %89

89:                                               ; preds = %98, %88
  %90 = load i32, ptr %5, align 4, !tbaa !37
  %91 = icmp slt i32 %90, 4
  br i1 %91, label %92, label %101

92:                                               ; preds = %89
  %93 = load ptr, ptr %9, align 8, !tbaa !41
  %94 = getelementptr inbounds nuw %struct.AMRWBContext, ptr %93, i32 0, i32 15
  %95 = load i32, ptr %5, align 4, !tbaa !37
  %96 = sext i32 %95 to i64
  %97 = getelementptr inbounds [4 x float], ptr %94, i64 0, i64 %96
  store float -1.400000e+01, ptr %97, align 4, !tbaa !55
  br label %98

98:                                               ; preds = %92
  %99 = load i32, ptr %5, align 4, !tbaa !37
  %100 = add nsw i32 %99, 1
  store i32 %100, ptr %5, align 4, !tbaa !37
  br label %89, !llvm.loop !58

101:                                              ; preds = %89
  %102 = load ptr, ptr %9, align 8, !tbaa !41
  %103 = getelementptr inbounds nuw %struct.AMRWBContext, ptr %102, i32 0, i32 32
  call void @ff_acelp_filter_init(ptr noundef %103)
  %104 = load ptr, ptr %9, align 8, !tbaa !41
  %105 = getelementptr inbounds nuw %struct.AMRWBContext, ptr %104, i32 0, i32 33
  call void @ff_acelp_vectors_init(ptr noundef %105)
  %106 = load ptr, ptr %9, align 8, !tbaa !41
  %107 = getelementptr inbounds nuw %struct.AMRWBContext, ptr %106, i32 0, i32 34
  call void @ff_celp_filter_init(ptr noundef %107)
  %108 = load ptr, ptr %9, align 8, !tbaa !41
  %109 = getelementptr inbounds nuw %struct.AMRWBContext, ptr %108, i32 0, i32 35
  call void @ff_celp_math_init(ptr noundef %109)
  call void @llvm.lifetime.end.p0(i64 8, ptr %9) #9
  br label %110

110:                                              ; preds = %101
  %111 = load i32, ptr %8, align 4, !tbaa !37
  %112 = add nsw i32 %111, 1
  store i32 %112, ptr %8, align 4, !tbaa !37
  br label %46, !llvm.loop !59

113:                                              ; preds = %53
  store i32 0, ptr %2, align 4
  store i32 1, ptr %6, align 4
  br label %114

114:                                              ; preds = %113, %18
  call void @llvm.lifetime.end.p0(i64 4, ptr %5) #9
  call void @llvm.lifetime.end.p0(i64 8, ptr %4) #9
  %115 = load i32, ptr %2, align 4
  ret i32 %115
}