; Function Attrs: cold nounwind optsize uwtable
define internal range(i32 -1163346256, 1) i32 @amrwb_decode_init(ptr noundef %0) #0 {
  %2 = getelementptr inbounds nuw i8, ptr %0, i64 32
  %3 = load ptr, ptr %2, align 8, !tbaa !4
  %4 = getelementptr inbounds nuw i8, ptr %0, i64 352
  %5 = getelementptr inbounds nuw i8, ptr %0, i64 356
  %6 = load i32, ptr %5, align 4, !tbaa !27
  %7 = icmp sgt i32 %6, 2
  br i1 %7, label %8, label %9

8:                                                ; preds = %1
  tail call void (ptr, ptr, ...) @avpriv_report_missing_feature(ptr noundef nonnull %0, ptr noundef nonnull @.str.2) #9
  br label %.loopexit

9:                                                ; preds = %1
  %.not = icmp eq i32 %6, 0
  br i1 %.not, label %10, label %11

10:                                               ; preds = %9
  tail call void @av_channel_layout_uninit(ptr noundef nonnull %4) #9
  store i32 1, ptr %4, align 8, !tbaa !28
  store i32 1, ptr %5, align 4, !tbaa !28
  %.sroa.3.0..sroa_idx = getelementptr inbounds nuw i8, ptr %0, i64 360
  store i64 4, ptr %.sroa.3.0..sroa_idx, align 8, !tbaa !29
  %.sroa.4.0..sroa_idx = getelementptr inbounds nuw i8, ptr %0, i64 368
  store ptr null, ptr %.sroa.4.0..sroa_idx, align 8, !tbaa !30
  br label %11

11:                                               ; preds = %10, %9
  %12 = phi i32 [ 1, %10 ], [ %6, %9 ]
  %13 = getelementptr inbounds nuw i8, ptr %0, i64 344
  %14 = load i32, ptr %13, align 8, !tbaa !31
  %.not34 = icmp eq i32 %14, 0
  br i1 %.not34, label %15, label %16

15:                                               ; preds = %11
  store i32 16000, ptr %13, align 8, !tbaa !31
  br label %16

16:                                               ; preds = %15, %11
  %17 = getelementptr inbounds nuw i8, ptr %0, i64 348
  store i32 8, ptr %17, align 4, !tbaa !32
  %18 = icmp sgt i32 %12, 0
  br i1 %18, label %.lr.ph, label %.loopexit

.lr.ph:                                           ; preds = %16, %34
  %indvars.iv43 = phi i64 [ %indvars.iv.next44, %34 ], [ 0, %16 ]
  %19 = getelementptr inbounds nuw [2 x %struct.AMRWBContext], ptr %3, i64 0, i64 %indvars.iv43
  %20 = getelementptr inbounds nuw i8, ptr %19, i64 4380
  tail call void @av_lfg_init(ptr noundef nonnull %20, i32 noundef 1) #9
  %21 = getelementptr inbounds nuw i8, ptr %19, i64 2204
  %22 = getelementptr inbounds nuw i8, ptr %19, i64 2464
  store ptr %21, ptr %22, align 8, !tbaa !33
  %23 = getelementptr inbounds nuw i8, ptr %19, i64 4640
  store i8 1, ptr %23, align 8, !tbaa !43
  %24 = getelementptr inbounds nuw i8, ptr %19, i64 248
  br label %26

.preheader:                                       ; preds = %26
  %25 = getelementptr inbounds nuw i8, ptr %19, i64 2984
  br label %32

26:                                               ; preds = %.lr.ph, %26
  %indvars.iv = phi i64 [ 0, %.lr.ph ], [ %indvars.iv.next, %26 ]
  %27 = getelementptr inbounds nuw [16 x i16], ptr @isf_init, i64 0, i64 %indvars.iv
  %28 = load i16, ptr %27, align 2, !tbaa !44
  %29 = sitofp i16 %28 to float
  %30 = fmul nsz float %29, 0x3F00000000000000
  %31 = getelementptr inbounds nuw [16 x float], ptr %24, i64 0, i64 %indvars.iv
  store float %30, ptr %31, align 4, !tbaa !45
  %indvars.iv.next = add nuw nsw i64 %indvars.iv, 1
  %exitcond.not = icmp eq i64 %indvars.iv.next, 16
  br i1 %exitcond.not, label %.preheader, label %26, !llvm.loop !46

32:                                               ; preds = %.preheader, %32
  %indvars.iv39 = phi i64 [ 0, %.preheader ], [ %indvars.iv.next40, %32 ]
  %33 = getelementptr inbounds nuw [4 x float], ptr %25, i64 0, i64 %indvars.iv39
  store float -1.400000e+01, ptr %33, align 4, !tbaa !45
  %indvars.iv.next40 = add nuw nsw i64 %indvars.iv39, 1
  %exitcond42.not = icmp eq i64 %indvars.iv.next40, 4
  br i1 %exitcond42.not, label %34, label %32, !llvm.loop !48

34:                                               ; preds = %32
  %35 = getelementptr inbounds nuw i8, ptr %19, i64 4648
  tail call void @ff_acelp_filter_init(ptr noundef nonnull %35) #9
  %36 = getelementptr inbounds nuw i8, ptr %19, i64 4664
  tail call void @ff_acelp_vectors_init(ptr noundef nonnull %36) #9
  %37 = getelementptr inbounds nuw i8, ptr %19, i64 4672
  tail call void @ff_celp_filter_init(ptr noundef nonnull %37) #9
  %38 = getelementptr inbounds nuw i8, ptr %19, i64 4688
  tail call void @ff_celp_math_init(ptr noundef nonnull %38) #9
  %indvars.iv.next44 = add nuw nsw i64 %indvars.iv43, 1
  %39 = load i32, ptr %5, align 4, !tbaa !27
  %40 = sext i32 %39 to i64
  %41 = icmp slt i64 %indvars.iv.next44, %40
  br i1 %41, label %.lr.ph, label %.loopexit, !llvm.loop !49

.loopexit:                                        ; preds = %34, %16, %8
  %.0 = phi i32 [ -1163346256, %8 ], [ 0, %16 ], [ 0, %34 ]
  ret i32 %.0
}